target datalayout = "e-m:e-p270:32:32-p271:32:32-p272:64:64-i64:64-i128:128-f80:128-n8:16:32:64-S128"
target triple = "x86_64-pc-linux-gnu"

%struct.ParsedScript = type { ptr, i32, ptr, %struct.StatsData }
%struct.StatsData = type { i64, i64, i64, i64, i64, i64, i64, %struct.SimpleStats, %struct.SimpleStats }
%struct.SimpleStats = type { i64, double, double, double, double }
%struct.pg_prng_state = type { i64, i64 }
%struct.PQExpBufferData = type { ptr, i64, i64 }
%struct.CState = type { ptr, i32, i32, ptr, %struct.pg_prng_state, i32, i32, i32, %struct.Variables, i64, i64, i64, i64, ptr, i32, %struct.pg_prng_state, i32, i64 }
%struct.Variables = type { ptr, i32, i32, i8 }
%struct.Command = type { %struct.PQExpBufferData, ptr, i32, i32, i32, [256 x ptr], ptr, ptr, ptr, %struct.SimpleStats, i64, i64 }

@.str.8 = private unnamed_addr constant [3 x i8] c"%s\00", align 1
@num_scripts = internal global i32 0, align 4
@sql_script = internal global [128 x %struct.ParsedScript] zeroinitializer, align 16
@__pg_log_level = external global i32, align 4
@.str.379 = private unnamed_addr constant [23 x i8] c"client %d preparing %s\00", align 1

; Function Attrs: nounwind uwtable
define internal void @allocCStatePrepared(ptr noundef %0) #0 {
  %2 = alloca ptr, align 8
  %3 = alloca i32, align 4
  %4 = alloca ptr, align 8
  %5 = alloca i32, align 4
  store ptr %0, ptr %2, align 8
  %6 = load i32, ptr @num_scripts, align 4
  %7 = sext i32 %6 to i64
  %8 = mul i64 8, %7
  %9 = call ptr @pg_malloc(i64 noundef %8)
  %10 = load ptr, ptr %2, align 8
  %11 = getelementptr inbounds nuw %struct.CState, ptr %10, i32 0, i32 13
  store ptr %9, ptr %11, align 8
  call void @llvm.lifetime.start.p0(i64 4, ptr %3) #14
  store i32 0, ptr %3, align 4
  br label %12

12:                                               ; preds = %45, %1
  %13 = load i32, ptr %3, align 4
  %14 = load i32, ptr @num_scripts, align 4
  %15 = icmp slt i32 %13, %14
  br i1 %15, label %17, label %16

16:                                               ; preds = %12
  call void @llvm.lifetime.end.p0(i64 4, ptr %3) #14
  br label %48

17:                                               ; preds = %12
  call void @llvm.lifetime.start.p0(i64 8, ptr %4) #14
  %18 = load i32, ptr %3, align 4
  %19 = sext i32 %18 to i64
  %20 = getelementptr inbounds [128 x %struct.ParsedScript], ptr @sql_script, i64 0, i64 %19
  store ptr %20, ptr %4, align 8
  call void @llvm.lifetime.start.p0(i64 4, ptr %5) #14
  store i32 0, ptr %5, align 4
  br label %21

21:                                               ; preds = %31, %17
  %22 = load ptr, ptr %4, align 8
  %23 = getelementptr inbounds nuw %struct.ParsedScript, ptr %22, i32 0, i32 2
  %24 = load ptr, ptr %23, align 8
  %25 = load i32, ptr %5, align 4
  %26 = sext i32 %25 to i64
  %27 = getelementptr inbounds ptr, ptr %24, i64 %26
  %28 = load ptr, ptr %27, align 8
  %29 = icmp ne ptr %28, null
  br i1 %29, label %30, label %34

30:                                               ; preds = %21
  br label %31

31:                                               ; preds = %30
  %32 = load i32, ptr %5, align 4
  %33 = add i32 %32, 1
  store i32 %33, ptr %5, align 4
  br label %21, !llvm.loop !65

34:                                               ; preds = %21
  %35 = load i32, ptr %5, align 4
  %36 = sext i32 %35 to i64
  %37 = mul i64 1, %36
  %38 = call ptr @pg_malloc0(i64 noundef %37)
  %39 = load ptr, ptr %2, align 8
  %40 = getelementptr inbounds nuw %struct.CState, ptr %39, i32 0, i32 13
  %41 = load ptr, ptr %40, align 8
  %42 = load i32, ptr %3, align 4
  %43 = sext i32 %42 to i64
  %44 = getelementptr inbounds ptr, ptr %41, i64 %43
  store ptr %38, ptr %44, align 8
  call void @llvm.lifetime.end.p0(i64 4, ptr %5) #14
  call void @llvm.lifetime.end.p0(i64 8, ptr %4) #14
  br label %45

45:                                               ; preds = %34
  %46 = load i32, ptr %3, align 4
  %47 = add i32 %46, 1
  store i32 %47, ptr %3, align 4
  br label %12, !llvm.loop !66

48:                                               ; preds = %16
  ret void
}

; Function Attrs: nounwind uwtable
define internal void @prepareCommand(ptr noundef %0, i32 noundef %1) #0 {
  %3 = alloca ptr, align 8
  %4 = alloca i32, align 4
  %5 = alloca ptr, align 8
  %6 = alloca i32, align 4
  %7 = alloca ptr, align 8
  store ptr %0, ptr %3, align 8
  store i32 %1, ptr %4, align 4
  call void @llvm.lifetime.start.p0(i64 8, ptr %5) #14
  %8 = load ptr, ptr %3, align 8
  %9 = getelementptr inbounds nuw %struct.CState, ptr %8, i32 0, i32 5
  %10 = load i32, ptr %9, align 8
  %11 = sext i32 %10 to i64
  %12 = getelementptr inbounds [128 x %struct.ParsedScript], ptr @sql_script, i64 0, i64 %11
  %13 = getelementptr inbounds nuw %struct.ParsedScript, ptr %12, i32 0, i32 2
  %14 = load ptr, ptr %13, align 16
  %15 = load i32, ptr %4, align 4
  %16 = sext i32 %15 to i64
  %17 = getelementptr inbounds ptr, ptr %14, i64 %16
  %18 = load ptr, ptr %17, align 8
  store ptr %18, ptr %5, align 8
  %19 = load ptr, ptr %5, align 8
  %20 = getelementptr inbounds nuw %struct.Command, ptr %19, i32 0, i32 2
  %21 = load i32, ptr %20, align 8
  %22 = icmp ne i32 %21, 1
  br i1 %22, label %23, label %24

23:                                               ; preds = %2
  store i32 1, ptr %6, align 4
  br label %104

24:                                               ; preds = %2
  %25 = load ptr, ptr %3, align 8
  %26 = getelementptr inbounds nuw %struct.CState, ptr %25, i32 0, i32 13
  %27 = load ptr, ptr %26, align 8
  %28 = icmp ne ptr %27, null
  br i1 %28, label %31, label %29

29:                                               ; preds = %24
  %30 = load ptr, ptr %3, align 8
  call void @allocCStatePrepared(ptr noundef %30)
  br label %31

31:                                               ; preds = %29, %24
  %32 = load ptr, ptr %3, align 8
  %33 = getelementptr inbounds nuw %struct.CState, ptr %32, i32 0, i32 13
  %34 = load ptr, ptr %33, align 8
  %35 = load ptr, ptr %3, align 8
  %36 = getelementptr inbounds nuw %struct.CState, ptr %35, i32 0, i32 5
  %37 = load i32, ptr %36, align 8
  %38 = sext i32 %37 to i64
  %39 = getelementptr inbounds ptr, ptr %34, i64 %38
  %40 = load ptr, ptr %39, align 8
  %41 = load i32, ptr %4, align 4
  %42 = sext i32 %41 to i64
  %43 = getelementptr inbounds i8, ptr %40, i64 %42
  %44 = load i8, ptr %43, align 1, !range !8, !noundef !9
  %45 = trunc i8 %44 to i1
  br i1 %45, label %103, label %46

46:                                               ; preds = %31
  call void @llvm.lifetime.start.p0(i64 8, ptr %7) #14
  br label %47

47:                                               ; preds = %46
  %48 = load i32, ptr @__pg_log_level, align 4
  %49 = icmp ule i32 %48, 1
  %50 = zext i1 %49 to i32
  %51 = icmp ne i32 %50, 0
  %52 = zext i1 %51 to i32
  %53 = sext i32 %52 to i64
  %54 = call i64 @llvm.expect.i64(i64 %53, i64 0)
  %55 = icmp ne i64 %54, 0
  br i1 %55, label %56, label %63

56:                                               ; preds = %47
  %57 = load ptr, ptr %3, align 8
  %58 = getelementptr inbounds nuw %struct.CState, ptr %57, i32 0, i32 1
  %59 = load i32, ptr %58, align 8
  %60 = load ptr, ptr %5, align 8
  %61 = getelementptr inbounds nuw %struct.Command, ptr %60, i32 0, i32 6
  %62 = load ptr, ptr %61, align 8
  call void (i32, i32, ptr, ...) @pg_log_generic(i32 noundef 1, i32 noundef 0, ptr noundef @.str.379, i32 noundef %59, ptr noundef %62)
  br label %63

63:                                               ; preds = %56, %47
  br label %64

64:                                               ; preds = %63
  br label %65

65:                                               ; preds = %64
  %66 = load ptr, ptr %3, align 8
  %67 = getelementptr inbounds nuw %struct.CState, ptr %66, i32 0, i32 0
  %68 = load ptr, ptr %67, align 8
  %69 = load ptr, ptr %5, align 8
  %70 = getelementptr inbounds nuw %struct.Command, ptr %69, i32 0, i32 6
  %71 = load ptr, ptr %70, align 8
  %72 = load ptr, ptr %5, align 8
  %73 = getelementptr inbounds nuw %struct.Command, ptr %72, i32 0, i32 5
  %74 = getelementptr inbounds [256 x ptr], ptr %73, i64 0, i64 0
  %75 = load ptr, ptr %74, align 8
  %76 = load ptr, ptr %5, align 8
  %77 = getelementptr inbounds nuw %struct.Command, ptr %76, i32 0, i32 4
  %78 = load i32, ptr %77, align 8
  %79 = sub i32 %78, 1
  %80 = call ptr @PQprepare(ptr noundef %68, ptr noundef %71, ptr noundef %75, i32 noundef %79, ptr noundef null)
  store ptr %80, ptr %7, align 8
  %81 = load ptr, ptr %7, align 8
  %82 = call i32 @PQresultStatus(ptr noundef %81)
  %83 = icmp ne i32 %82, 1
  br i1 %83, label %84, label %89

84:                                               ; preds = %65
  %85 = load ptr, ptr %3, align 8
  %86 = getelementptr inbounds nuw %struct.CState, ptr %85, i32 0, i32 0
  %87 = load ptr, ptr %86, align 8
  %88 = call ptr @PQerrorMessage(ptr noundef %87)
  call void (i32, i32, ptr, ...) @pg_log_generic(i32 noundef 4, i32 noundef 0, ptr noundef @.str.8, ptr noundef %88)
  br label %89

89:                                               ; preds = %84, %65
  %90 = load ptr, ptr %7, align 8
  call void @PQclear(ptr noundef %90)
  %91 = load ptr, ptr %3, align 8
  %92 = getelementptr inbounds nuw %struct.CState, ptr %91, i32 0, i32 13
  %93 = load ptr, ptr %92, align 8
  %94 = load ptr, ptr %3, align 8
  %95 = getelementptr inbounds nuw %struct.CState, ptr %94, i32 0, i32 5
  %96 = load i32, ptr %95, align 8
  %97 = sext i32 %96 to i64
  %98 = getelementptr inbounds ptr, ptr %93, i64 %97
  %99 = load ptr, ptr %98, align 8
  %100 = load i32, ptr %4, align 4
  %101 = sext i32 %100 to i64
  %102 = getelementptr inbounds i8, ptr %99, i64 %101
  store i8 1, ptr %102, align 1
  call void @llvm.lifetime.end.p0(i64 8, ptr %7) #14
  br label %103

103:                                              ; preds = %89, %31
  store i32 0, ptr %6, align 4
  br label %104

104:                                              ; preds = %103, %23
  call void @llvm.lifetime.end.p0(i64 8, ptr %5) #14
  %105 = load i32, ptr %6, align 4
  switch i32 %105, label %107 [
    i32 0, label %106
    i32 1, label %106
  ]

106:                                              ; preds = %104, %104
  ret void

107:                                              ; preds = %104
  unreachable
}