; Function Attrs: nounwind uwtable
define internal fastcc void @prepareCommand(ptr noundef captures(none) %0, i32 noundef %1) unnamed_addr #0 {
  %3 = getelementptr inbounds nuw i8, ptr %0, i64 40
  %4 = load i32, ptr %3, align 8
  %5 = sext i32 %4 to i64
  %6 = getelementptr inbounds [128 x %struct.ParsedScript], ptr @sql_script, i64 0, i64 %5, i32 2
  %7 = load ptr, ptr %6, align 16
  %8 = sext i32 %1 to i64
  %9 = getelementptr inbounds ptr, ptr %7, i64 %8
  %10 = load ptr, ptr %9, align 8
  %11 = getelementptr inbounds nuw i8, ptr %10, i64 32
  %12 = load i32, ptr %11, align 8
  %.not = icmp eq i32 %12, 1
  br i1 %.not, label %13, label %74

13:                                               ; preds = %2
  %14 = getelementptr inbounds nuw i8, ptr %0, i64 112
  %15 = load ptr, ptr %14, align 8
  %.not19 = icmp eq ptr %15, null
  br i1 %.not19, label %16, label %allocCStatePrepared.exit

16:                                               ; preds = %13
  %17 = load i32, ptr @num_scripts, align 4
  %18 = sext i32 %17 to i64
  %19 = shl nsw i64 %18, 3
  %20 = tail call ptr @pg_malloc(i64 noundef %19) #25
  store ptr %20, ptr %14, align 8
  %21 = load i32, ptr @num_scripts, align 4
  %22 = icmp sgt i32 %21, 0
  br i1 %22, label %.lr.ph.i, label %allocCStatePrepared.exit

.lr.ph.i:                                         ; preds = %16, %30
  %indvars.iv.i = phi i64 [ %indvars.iv.next.i, %30 ], [ 0, %16 ]
  %23 = getelementptr inbounds nuw [128 x %struct.ParsedScript], ptr @sql_script, i64 0, i64 %indvars.iv.i, i32 2
  %24 = load ptr, ptr %23, align 16
  br label %25

25:                                               ; preds = %25, %.lr.ph.i
  %.0.i = phi i32 [ 0, %.lr.ph.i ], [ %29, %25 ]
  %26 = sext i32 %.0.i to i64
  %27 = getelementptr inbounds ptr, ptr %24, i64 %26
  %28 = load ptr, ptr %27, align 8
  %.not.i = icmp eq ptr %28, null
  %29 = add i32 %.0.i, 1
  br i1 %.not.i, label %30, label %25, !llvm.loop !52

30:                                               ; preds = %25
  %31 = tail call ptr @pg_malloc0(i64 noundef %26) #25
  %32 = load ptr, ptr %14, align 8
  %33 = getelementptr inbounds nuw ptr, ptr %32, i64 %indvars.iv.i
  store ptr %31, ptr %33, align 8
  %indvars.iv.next.i = add nuw nsw i64 %indvars.iv.i, 1
  %34 = load i32, ptr @num_scripts, align 4
  %35 = sext i32 %34 to i64
  %36 = icmp slt i64 %indvars.iv.next.i, %35
  br i1 %36, label %.lr.ph.i, label %allocCStatePrepared.exit.loopexit, !llvm.loop !53

allocCStatePrepared.exit.loopexit:                ; preds = %30
  %.pre = load ptr, ptr %14, align 8
  br label %allocCStatePrepared.exit

allocCStatePrepared.exit:                         ; preds = %allocCStatePrepared.exit.loopexit, %16, %13
  %37 = phi ptr [ %.pre, %allocCStatePrepared.exit.loopexit ], [ %20, %16 ], [ %15, %13 ]
  %38 = load i32, ptr %3, align 8
  %39 = sext i32 %38 to i64
  %40 = getelementptr inbounds ptr, ptr %37, i64 %39
  %41 = load ptr, ptr %40, align 8
  %42 = getelementptr inbounds i8, ptr %41, i64 %8
  %43 = load i8, ptr %42, align 1, !range !20, !noundef !21
  %44 = trunc nuw i8 %43 to i1
  br i1 %44, label %74, label %45

45:                                               ; preds = %allocCStatePrepared.exit
  %46 = load i32, ptr @__pg_log_level, align 4
  %47 = icmp ult i32 %46, 2
  br i1 %47, label %48, label %53, !prof !6

48:                                               ; preds = %45
  %49 = getelementptr inbounds nuw i8, ptr %0, i64 8
  %50 = load i32, ptr %49, align 8
  %51 = getelementptr inbounds nuw i8, ptr %10, i64 2096
  %52 = load ptr, ptr %51, align 8
  tail call void (i32, i32, ptr, ...) @pg_log_generic(i32 noundef 1, i32 noundef 0, ptr noundef nonnull @.str.379, i32 noundef %50, ptr noundef %52) #25
  br label %53

53:                                               ; preds = %48, %45
  %54 = load ptr, ptr %0, align 8
  %55 = getelementptr inbounds nuw i8, ptr %10, i64 2096
  %56 = load ptr, ptr %55, align 8
  %57 = getelementptr inbounds nuw i8, ptr %10, i64 48
  %58 = load ptr, ptr %57, align 8
  %59 = getelementptr inbounds nuw i8, ptr %10, i64 40
  %60 = load i32, ptr %59, align 8
  %61 = add i32 %60, -1
  %62 = tail call ptr @PQprepare(ptr noundef %54, ptr noundef %56, ptr noundef %58, i32 noundef %61, ptr noundef null) #25
  %63 = tail call i32 @PQresultStatus(ptr noundef %62) #25
  %.not20 = icmp eq i32 %63, 1
  br i1 %.not20, label %67, label %64

64:                                               ; preds = %53
  %65 = load ptr, ptr %0, align 8
  %66 = tail call ptr @PQerrorMessage(ptr noundef %65) #25
  tail call void (i32, i32, ptr, ...) @pg_log_generic(i32 noundef 4, i32 noundef 0, ptr noundef nonnull @.str.8, ptr noundef %66) #25
  br label %67

67:                                               ; preds = %64, %53
  tail call void @PQclear(ptr noundef %62) #25
  %68 = load ptr, ptr %14, align 8
  %69 = load i32, ptr %3, align 8
  %70 = sext i32 %69 to i64
  %71 = getelementptr inbounds ptr, ptr %68, i64 %70
  %72 = load ptr, ptr %71, align 8
  %73 = getelementptr inbounds i8, ptr %72, i64 %8
  store i8 1, ptr %73, align 1
  br label %74

74:                                               ; preds = %allocCStatePrepared.exit, %67, %2
  ret void
}